; Function Attrs: nounwind uwtable
define hidden noundef i32 @zm_deactivate_syslog(i32 noundef %0, i32 noundef %1) local_unnamed_addr #1 {
  tail call void @php_closelog() #5
  %3 = load ptr, ptr getelementptr inbounds nuw (i8, ptr @basic_globals, i64 840), align 8, !tbaa !4
  %.not = icmp eq ptr %3, null
  br i1 %.not, label %5, label %4

4:                                                ; preds = %2
  tail call void @free(ptr noundef nonnull %3) #5
  store ptr null, ptr getelementptr inbounds nuw (i8, ptr @basic_globals, i64 840), align 8, !tbaa !4
  br label %5

5:                                                ; preds = %4, %2
  ret i32 0
}